target datalayout = "e-m:e-p270:32:32-p271:32:32-p272:64:64-i64:64-i128:128-f80:128-n8:16:32:64-S128"
target triple = "x86_64-pc-linux-gnu"

%struct.SDL_Cursor = type { ptr, ptr }
%struct.SDL_CursorData = type { i64 }
%struct.SDL_VideoDevice = type { ptr, ptr, ptr, ptr, ptr, ptr, ptr, ptr, ptr, ptr, ptr, ptr, ptr, ptr, ptr, ptr, ptr, ptr, ptr, ptr, ptr, ptr, ptr, ptr, ptr, ptr, ptr, ptr, ptr, ptr, ptr, ptr, ptr, ptr, ptr, ptr, ptr, ptr, ptr, ptr, ptr, ptr, ptr, ptr, ptr, ptr, ptr, ptr, ptr, ptr, ptr, ptr, ptr, ptr, ptr, ptr, ptr, ptr, ptr, ptr, ptr, ptr, ptr, ptr, ptr, ptr, ptr, ptr, ptr, ptr, ptr, ptr, ptr, ptr, ptr, ptr, ptr, ptr, ptr, ptr, ptr, ptr, ptr, ptr, ptr, ptr, ptr, ptr, ptr, ptr, ptr, ptr, ptr, ptr, ptr, ptr, ptr, i64, i8, i8, i8, ptr, i32, ptr, %struct.SDL_Rect, ptr, ptr, i32, ptr, ptr, ptr, ptr, i64, ptr, i8, i32, i32, %struct.anon, ptr, ptr, ptr, ptr, ptr, ptr, %struct.SDL_AtomicInt, %struct.SDL_AtomicInt, i8, %struct.anon.0, ptr, ptr, ptr, ptr, ptr }
%struct.SDL_Rect = type { i32, i32, i32, i32 }
%struct.anon = type { i32, i32, i32, i32, i32, i32, i32, i32, i32, i32, i32, i32, i32, i32, i32, i32, i32, i32, i32, i32, i32, i32, i32, i32, i32, i32, i32, i32, i32, [256 x i8], ptr }
%struct.SDL_AtomicInt = type { i32 }
%struct.anon.0 = type { ptr, ptr, i32, [256 x i8], ptr }
%struct.SDL_Point = type { i32, i32 }
%struct.SDL_VideoData = type { ptr, ptr, i32, ptr, i64, i32, ptr, i32, i64, i64, %struct.X11_ClipboardData, %struct.X11_ClipboardData, ptr, i64, %struct.X11_SettingsData, i8, %struct.anon.1, [256 x i32], i8, i8, i8, i64, i8, %struct.SDL_Point, i32, ptr, i32, i8, i32, %struct.anon.2, i8, i64, ptr, ptr, i8, i8, i8 }
%struct.X11_ClipboardData = type { ptr, ptr, ptr, i64, i32 }
%struct.X11_SettingsData = type { ptr }
%struct.anon.1 = type { i64, i64, i64, i64, i64, i64, i64, i64, i64, i64, i64, i64, i64, i64, i64, i64, i64, i64, i64, i64, i64, i64, i64, i64, i64, i64, i64, i64, i64, i64, i64, i64, i64, i64, i64, i64, i64, i64, i64, i64, i64, i64, i64, i64, i64, i64, i64, i64, i64, i64, i64, i64, i64 }
%struct.anon.2 = type { ptr, i32, i32, i32, i16, i32, i32 }
%struct.SDL_XInput2DeviceInfo = type { i32, [2 x i8], [2 x double], [2 x double], [2 x double], ptr }

@sys_cursors = internal global [10 x ptr] zeroinitializer, align 16
@x11_empty_cursor = internal global i64 0, align 8
@X11_XFreeCursor = external global ptr, align 8

; Function Attrs: nounwind uwtable
define internal ptr @GetDisplay() #0 {
  %1 = call ptr @SDL_GetVideoDevice()
  %2 = getelementptr inbounds nuw %struct.SDL_VideoDevice, ptr %1, i32 0, i32 128
  %3 = load ptr, ptr %2, align 8
  %4 = getelementptr inbounds nuw %struct.SDL_VideoData, ptr %3, i32 0, i32 0
  %5 = load ptr, ptr %4, align 8
  ret ptr %5
}

; Function Attrs: nounwind uwtable
define internal void @X11_DestroyEmptyCursor() #0 {
  %1 = load i64, ptr @x11_empty_cursor, align 8
  %2 = icmp ne i64 %1, 0
  br i1 %2, label %3, label %8

3:                                                ; preds = %0
  %4 = load ptr, ptr @X11_XFreeCursor, align 8
  %5 = call ptr @GetDisplay()
  %6 = load i64, ptr @x11_empty_cursor, align 8
  %7 = call i32 %4(ptr noundef %5, i64 noundef %6)
  store i64 0, ptr @x11_empty_cursor, align 8
  br label %8

8:                                                ; preds = %3, %0
  ret void
}

; Function Attrs: nounwind uwtable
define internal void @X11_FreeCursor(ptr noundef %0) #0 {
  %2 = alloca ptr, align 8
  %3 = alloca i64, align 8
  store ptr %0, ptr %2, align 8
  call void @llvm.lifetime.start.p0(i64 8, ptr %3) #6
  %4 = load ptr, ptr %2, align 8
  %5 = getelementptr inbounds nuw %struct.SDL_Cursor, ptr %4, i32 0, i32 1
  %6 = load ptr, ptr %5, align 8
  %7 = getelementptr inbounds nuw %struct.SDL_CursorData, ptr %6, i32 0, i32 0
  %8 = load i64, ptr %7, align 8
  store i64 %8, ptr %3, align 8
  %9 = load i64, ptr %3, align 8
  %10 = icmp ne i64 %9, 0
  br i1 %10, label %11, label %16

11:                                               ; preds = %1
  %12 = load ptr, ptr @X11_XFreeCursor, align 8
  %13 = call ptr @GetDisplay()
  %14 = load i64, ptr %3, align 8
  %15 = call i32 %12(ptr noundef %13, i64 noundef %14)
  br label %16

16:                                               ; preds = %11, %1
  %17 = load ptr, ptr %2, align 8
  %18 = getelementptr inbounds nuw %struct.SDL_Cursor, ptr %17, i32 0, i32 1
  %19 = load ptr, ptr %18, align 8
  call void @SDL_free_REAL(ptr noundef %19)
  %20 = load ptr, ptr %2, align 8
  call void @SDL_free_REAL(ptr noundef %20)
  call void @llvm.lifetime.end.p0(i64 8, ptr %3) #6
  ret void
}

; Function Attrs: nounwind uwtable
define hidden void @X11_QuitMouse(ptr noundef %0) #0 {
  %2 = alloca ptr, align 8
  %3 = alloca ptr, align 8
  %4 = alloca ptr, align 8
  %5 = alloca ptr, align 8
  %6 = alloca i32, align 4
  store ptr %0, ptr %2, align 8
  call void @llvm.lifetime.start.p0(i64 8, ptr %3) #6
  %7 = load ptr, ptr %2, align 8
  %8 = getelementptr inbounds nuw %struct.SDL_VideoDevice, ptr %7, i32 0, i32 128
  %9 = load ptr, ptr %8, align 8
  store ptr %9, ptr %3, align 8
  call void @llvm.lifetime.start.p0(i64 8, ptr %4) #6
  call void @llvm.lifetime.start.p0(i64 8, ptr %5) #6
  call void @llvm.lifetime.start.p0(i64 4, ptr %6) #6
  store i32 0, ptr %6, align 4
  br label %10

10:                                               ; preds = %22, %1
  %11 = load i32, ptr %6, align 4
  %12 = sext i32 %11 to i64
  %13 = icmp ult i64 %12, 10
  br i1 %13, label %14, label %25

14:                                               ; preds = %10
  %15 = load i32, ptr %6, align 4
  %16 = sext i32 %15 to i64
  %17 = getelementptr inbounds [10 x ptr], ptr @sys_cursors, i64 0, i64 %16
  %18 = load ptr, ptr %17, align 8
  call void @X11_FreeCursor(ptr noundef %18)
  %19 = load i32, ptr %6, align 4
  %20 = sext i32 %19 to i64
  %21 = getelementptr inbounds [10 x ptr], ptr @sys_cursors, i64 0, i64 %20
  store ptr null, ptr %21, align 8
  br label %22

22:                                               ; preds = %14
  %23 = load i32, ptr %6, align 4
  %24 = add nsw i32 %23, 1
  store i32 %24, ptr %6, align 4
  br label %10, !llvm.loop !9

25:                                               ; preds = %10
  %26 = load ptr, ptr %3, align 8
  %27 = getelementptr inbounds nuw %struct.SDL_VideoData, ptr %26, i32 0, i32 25
  %28 = load ptr, ptr %27, align 8
  store ptr %28, ptr %4, align 8
  br label %29

29:                                               ; preds = %37, %25
  %30 = load ptr, ptr %4, align 8
  %31 = icmp ne ptr %30, null
  br i1 %31, label %32, label %39

32:                                               ; preds = %29
  %33 = load ptr, ptr %4, align 8
  %34 = getelementptr inbounds nuw %struct.SDL_XInput2DeviceInfo, ptr %33, i32 0, i32 5
  %35 = load ptr, ptr %34, align 8
  store ptr %35, ptr %5, align 8
  %36 = load ptr, ptr %4, align 8
  call void @SDL_free_REAL(ptr noundef %36)
  br label %37

37:                                               ; preds = %32
  %38 = load ptr, ptr %5, align 8
  store ptr %38, ptr %4, align 8
  br label %29, !llvm.loop !10

39:                                               ; preds = %29
  %40 = load ptr, ptr %3, align 8
  %41 = getelementptr inbounds nuw %struct.SDL_VideoData, ptr %40, i32 0, i32 25
  store ptr null, ptr %41, align 8
  call void @X11_DestroyEmptyCursor()
  call void @llvm.lifetime.end.p0(i64 4, ptr %6) #6
  call void @llvm.lifetime.end.p0(i64 8, ptr %5) #6
  call void @llvm.lifetime.end.p0(i64 8, ptr %4) #6
  call void @llvm.lifetime.end.p0(i64 8, ptr %3) #6
  ret void
}