; Function Attrs: nounwind uwtable
define hidden void @X11_QuitMouse(ptr noundef readonly captures(none) %0) local_unnamed_addr #0 {
  %2 = getelementptr inbounds nuw i8, ptr %0, i64 1656
  %3 = load ptr, ptr %2, align 8
  br label %4

4:                                                ; preds = %1, %X11_FreeCursor.exit
  %indvars.iv = phi i64 [ 0, %1 ], [ %indvars.iv.next, %X11_FreeCursor.exit ]
  %5 = getelementptr inbounds nuw [10 x ptr], ptr @sys_cursors, i64 0, i64 %indvars.iv
  %6 = load ptr, ptr %5, align 8
  %7 = getelementptr inbounds nuw i8, ptr %6, i64 8
  %8 = load ptr, ptr %7, align 8
  %9 = load i64, ptr %8, align 8
  %.not.i = icmp eq i64 %9, 0
  br i1 %.not.i, label %X11_FreeCursor.exit, label %10

10:                                               ; preds = %4
  %11 = load ptr, ptr @X11_XFreeCursor, align 8
  %12 = tail call ptr @SDL_GetVideoDevice() #5
  %13 = getelementptr inbounds nuw i8, ptr %12, i64 1656
  %14 = load ptr, ptr %13, align 8
  %15 = load ptr, ptr %14, align 8
  %16 = tail call i32 %11(ptr noundef %15, i64 noundef %9) #5
  %.pre.i = load ptr, ptr %7, align 8
  br label %X11_FreeCursor.exit

X11_FreeCursor.exit:                              ; preds = %4, %10
  %17 = phi ptr [ %.pre.i, %10 ], [ %8, %4 ]
  tail call void @SDL_free_REAL(ptr noundef %17) #5
  tail call void @SDL_free_REAL(ptr noundef nonnull %6) #5
  store ptr null, ptr %5, align 8
  %indvars.iv.next = add nuw nsw i64 %indvars.iv, 1
  %exitcond.not = icmp eq i64 %indvars.iv.next, 10
  br i1 %exitcond.not, label %18, label %4, !llvm.loop !11

18:                                               ; preds = %X11_FreeCursor.exit
  %19 = getelementptr inbounds nuw i8, ptr %3, i64 1672
  %20 = load ptr, ptr %19, align 8
  %.not14 = icmp eq ptr %20, null
  br i1 %.not14, label %._crit_edge, label %.lr.ph

.lr.ph:                                           ; preds = %18, %.lr.ph
  %.01015 = phi ptr [ %22, %.lr.ph ], [ %20, %18 ]
  %21 = getelementptr inbounds nuw i8, ptr %.01015, i64 56
  %22 = load ptr, ptr %21, align 8
  tail call void @SDL_free_REAL(ptr noundef nonnull %.01015) #5
  %.not = icmp eq ptr %22, null
  br i1 %.not, label %._crit_edge, label %.lr.ph, !llvm.loop !12

._crit_edge:                                      ; preds = %.lr.ph, %18
  store ptr null, ptr %19, align 8
  %23 = load i64, ptr @x11_empty_cursor, align 8
  %.not.i12 = icmp eq i64 %23, 0
  br i1 %.not.i12, label %X11_DestroyEmptyCursor.exit, label %24

24:                                               ; preds = %._crit_edge
  %25 = load ptr, ptr @X11_XFreeCursor, align 8
  %26 = tail call ptr @SDL_GetVideoDevice() #5
  %27 = getelementptr inbounds nuw i8, ptr %26, i64 1656
  %28 = load ptr, ptr %27, align 8
  %29 = load ptr, ptr %28, align 8
  %30 = load i64, ptr @x11_empty_cursor, align 8
  %31 = tail call i32 %25(ptr noundef %29, i64 noundef %30) #5
  store i64 0, ptr @x11_empty_cursor, align 8
  br label %X11_DestroyEmptyCursor.exit

X11_DestroyEmptyCursor.exit:                      ; preds = %._crit_edge, %24
  ret void
}